; Function Attrs: nounwind uwtable
define hidden void @zim_FilesystemIterator_rewind(ptr nocapture noundef readonly %0, ptr nocapture readnone %1) #0 {
  %3 = getelementptr inbounds i8, ptr %0, i64 32
  %4 = load ptr, ptr %3, align 8
  %5 = getelementptr inbounds i8, ptr %4, i64 -336
  %6 = load i64, ptr %5, align 8
  %.fr13 = freeze i64 %6
  %7 = and i64 %.fr13, 4096
  %.not = icmp eq i64 %7, 0
  %8 = getelementptr inbounds i8, ptr %0, i64 44
  %9 = load i32, ptr %8, align 4
  %.not8 = icmp eq i32 %9, 0
  br i1 %.not8, label %.critedge11, label %10

10:                                               ; preds = %2
  tail call void @zend_wrong_parameters_none_error() #18
  %11 = load ptr, ptr getelementptr inbounds (%struct._zend_executor_globals, ptr @executor_globals, i64 0, i32 50), align 8
  %12 = icmp ne ptr %11, null
  tail call void @llvm.assume(i1 %12)
  br label %.critedge

.critedge11:                                      ; preds = %2
  %13 = getelementptr inbounds i8, ptr %4, i64 -312
  %14 = getelementptr inbounds i8, ptr %4, i64 -296
  store i32 0, ptr %14, align 8
  %15 = load ptr, ptr %13, align 8
  %.not9 = icmp eq ptr %15, null
  br i1 %.not9, label %18, label %16

16:                                               ; preds = %.critedge11
  %17 = tail call i32 @_php_stream_seek(ptr noundef nonnull %15, i64 noundef 0, i32 noundef 0) #18
  br label %18

18:                                               ; preds = %16, %.critedge11
  %19 = getelementptr inbounds i8, ptr %4, i64 -352
  %20 = getelementptr inbounds i8, ptr %4, i64 -264
  br i1 %.not, label %spl_filesystem_is_dot.exit.us, label %spl_filesystem_is_dot.exit

spl_filesystem_is_dot.exit.us:                    ; preds = %18
  %21 = load ptr, ptr %19, align 8
  %.not.i.us = icmp eq ptr %21, null
  br i1 %.not.i.us, label %36, label %22

22:                                               ; preds = %spl_filesystem_is_dot.exit.us
  %23 = getelementptr inbounds i8, ptr %21, i64 4
  %24 = load i32, ptr %23, align 4
  %25 = and i32 %24, 64
  %.not18.i.us = icmp eq i32 %25, 0
  br i1 %.not18.i.us, label %26, label %35

26:                                               ; preds = %22
  %27 = load i32, ptr %21, align 4
  %28 = icmp ne i32 %27, 0
  tail call void @llvm.assume(i1 %28)
  %29 = add i32 %27, -1
  store i32 %29, ptr %21, align 4
  %30 = icmp eq i32 %29, 0
  br i1 %30, label %31, label %35

31:                                               ; preds = %26
  %32 = and i32 %24, 128
  %.not19.i.us = icmp eq i32 %32, 0
  br i1 %.not19.i.us, label %34, label %33

33:                                               ; preds = %31
  tail call void @free(ptr noundef nonnull %21) #18
  br label %35

34:                                               ; preds = %31
  tail call void @_efree(ptr noundef nonnull %21) #18
  br label %35

35:                                               ; preds = %34, %33, %26, %22
  store ptr null, ptr %19, align 8
  br label %36

36:                                               ; preds = %35, %spl_filesystem_is_dot.exit.us
  %37 = load ptr, ptr %13, align 8
  %.not20.i.us = icmp eq ptr %37, null
  br i1 %.not20.i.us, label %40, label %38

38:                                               ; preds = %36
  %39 = tail call ptr @_php_stream_readdir(ptr noundef nonnull %37, ptr noundef nonnull %20) #18
  %.not21.i.us = icmp eq ptr %39, null
  br i1 %.not21.i.us, label %40, label %.critedge

40:                                               ; preds = %38, %36
  store i8 0, ptr %20, align 8
  br label %.critedge

spl_filesystem_is_dot.exit:                       ; preds = %18, %spl_filesystem_is_dot.exit.backedge
  %41 = load ptr, ptr %19, align 8
  %.not.i = icmp eq ptr %41, null
  br i1 %.not.i, label %56, label %42

42:                                               ; preds = %spl_filesystem_is_dot.exit
  %43 = getelementptr inbounds i8, ptr %41, i64 4
  %44 = load i32, ptr %43, align 4
  %45 = and i32 %44, 64
  %.not18.i = icmp eq i32 %45, 0
  br i1 %.not18.i, label %46, label %55

46:                                               ; preds = %42
  %47 = load i32, ptr %41, align 4
  %48 = icmp ne i32 %47, 0
  tail call void @llvm.assume(i1 %48)
  %49 = add i32 %47, -1
  store i32 %49, ptr %41, align 4
  %50 = icmp eq i32 %49, 0
  br i1 %50, label %51, label %55

51:                                               ; preds = %46
  %52 = and i32 %44, 128
  %.not19.i = icmp eq i32 %52, 0
  br i1 %.not19.i, label %54, label %53

53:                                               ; preds = %51
  tail call void @free(ptr noundef nonnull %41) #18
  br label %55

54:                                               ; preds = %51
  tail call void @_efree(ptr noundef nonnull %41) #18
  br label %55

55:                                               ; preds = %54, %53, %46, %42
  store ptr null, ptr %19, align 8
  br label %56

56:                                               ; preds = %55, %spl_filesystem_is_dot.exit
  %57 = load ptr, ptr %13, align 8
  %.not20.i = icmp eq ptr %57, null
  br i1 %.not20.i, label %60, label %58

58:                                               ; preds = %56
  %59 = tail call ptr @_php_stream_readdir(ptr noundef nonnull %57, ptr noundef nonnull %20) #18
  %.not21.i = icmp eq ptr %59, null
  br i1 %.not21.i, label %60, label %spl_filesystem_dir_read.exit

60:                                               ; preds = %58, %56
  store i8 0, ptr %20, align 8
  br label %spl_filesystem_dir_read.exit

spl_filesystem_dir_read.exit:                     ; preds = %58, %60
  %61 = tail call i32 @strcmp(ptr noundef nonnull dereferenceable(1) %20, ptr noundef nonnull dereferenceable(2) @.str.39) #20
  %.not.i12 = icmp eq i32 %61, 0
  br i1 %.not.i12, label %spl_filesystem_is_dot.exit.backedge, label %62

62:                                               ; preds = %spl_filesystem_dir_read.exit
  %63 = tail call i32 @strcmp(ptr noundef nonnull dereferenceable(1) %20, ptr noundef nonnull dereferenceable(3) @.str.40) #20
  %.not2.i = icmp eq i32 %63, 0
  br i1 %.not2.i, label %spl_filesystem_is_dot.exit.backedge, label %.critedge

spl_filesystem_is_dot.exit.backedge:              ; preds = %62, %spl_filesystem_dir_read.exit
  br label %spl_filesystem_is_dot.exit

.critedge:                                        ; preds = %62, %38, %40, %10
  ret void
}